target datalayout = "e-m:e-p270:32:32-p271:32:32-p272:64:64-i64:64-i128:128-f80:128-n8:16:32:64-S128"
target triple = "x86_64-pc-linux-gnu"

%struct.QTailQLink = type { ptr, ptr }
%struct.TCGContext = type { ptr, ptr, ptr, ptr, ptr, i32, i32, i32, i32, i32, i32, i32, i8, i8, i8, i32, i32, i64, i64, i64, ptr, ptr, ptr, ptr, ptr, i64, ptr, ptr, ptr, ptr, %struct.anon.3, ptr, ptr, ptr, ptr, ptr, [6 x ptr], [6 x %struct.TCGTempSet], [512 x %struct.TCGTemp], %union.anon.4, %union.anon.4, %struct.anon.5, ptr, [32 x ptr], [512 x i16], ptr, [1 x %struct.__jmp_buf_tag] }
%struct.anon.3 = type { ptr, ptr }
%struct.TCGTempSet = type { [8 x i64] }
%struct.TCGTemp = type { i64, i64, ptr, i64, ptr, i64, ptr }
%union.anon.4 = type { %struct.QTailQLink }
%struct.anon.5 = type { ptr, ptr }
%struct.__jmp_buf_tag = type { [8 x i64], i32, %struct.__sigset_t }
%struct.__sigset_t = type { [16 x i64] }
%struct.TranslationBlock = type { i64, i64, i32, i32, i16, i16, %struct.tb_tc, %struct.IntervalTreeNode, %struct.QemuSpin, [2 x i16], [2 x i16], [2 x i64], i64, [2 x i64], [2 x i64] }
%struct.tb_tc = type { ptr, i64 }
%struct.IntervalTreeNode = type { %struct.RBNode, i64, i64, i64 }
%struct.RBNode = type { i64, ptr, ptr }
%struct.QemuSpin = type { i32 }

@tcg_ctx = external thread_local global ptr, align 8

; Function Attrs: nounwind sspstrong uwtable
define internal ptr @tcg_gen_op1i(i32 noundef %0, i32 noundef %1, i64 noundef %2) #3 {
  %4 = alloca i32, align 4
  %5 = alloca i32, align 4
  %6 = alloca i64, align 8
  store i32 %0, ptr %4, align 4
  store i32 %1, ptr %5, align 4
  store i64 %2, ptr %6, align 8
  %7 = load i32, ptr %4, align 4
  %8 = load i32, ptr %5, align 4
  %9 = load i64, ptr %6, align 8
  %10 = call ptr @tcg_gen_op1(i32 noundef %7, i32 noundef %8, i64 noundef %9)
  ret ptr %10
}

; Function Attrs: nounwind sspstrong uwtable
define dso_local void @tcg_gen_goto_tb(i32 noundef %0) #3 {
  %2 = alloca i32, align 4
  store i32 %0, ptr %2, align 4
  br label %3

3:                                                ; preds = %1
  %4 = call align 8 ptr @llvm.threadlocal.address.p0(ptr align 8 @tcg_ctx)
  %5 = load ptr, ptr %4, align 8
  %6 = getelementptr inbounds nuw %struct.TCGContext, ptr %5, i32 0, i32 21
  %7 = load ptr, ptr %6, align 8
  %8 = getelementptr inbounds nuw %struct.TranslationBlock, ptr %7, i32 0, i32 3
  %9 = load i32, ptr %8, align 4
  %10 = and i32 %9, 512
  %11 = icmp ne i32 %10, 0
  br i1 %11, label %12, label %13

12:                                               ; preds = %3
  unreachable

13:                                               ; preds = %3
  br label %14

14:                                               ; preds = %13
  br label %15

15:                                               ; preds = %14
  %16 = load i32, ptr %2, align 4
  %17 = icmp ule i32 %16, 1
  br i1 %17, label %19, label %18

18:                                               ; preds = %15
  unreachable

19:                                               ; preds = %15
  br label %20

20:                                               ; preds = %19
  call void @plugin_gen_disable_mem_helpers()
  %21 = load i32, ptr %2, align 4
  %22 = zext i32 %21 to i64
  %23 = call ptr @tcg_gen_op1i(i32 noundef 131, i32 noundef 0, i64 noundef %22)
  ret void
}